; Function Attrs: mustprogress nofree norecurse nosync nounwind willreturn memory(argmem: readwrite) uwtable
define void @uiter_setCharacterIterator_77(ptr noundef writeonly %0, ptr noundef %1) local_unnamed_addr #3 {
  %.not = icmp eq ptr %0, null
  br i1 %.not, label %6, label %3

3:                                                ; preds = %2
  %.not7 = icmp eq ptr %1, null
  br i1 %.not7, label %5, label %4

4:                                                ; preds = %3
  tail call void @llvm.memcpy.p0.p0.i64(ptr noundef nonnull align 8 dereferenceable(112) %0, ptr noundef nonnull align 8 dereferenceable(112) @_ZL24characterIteratorWrapper, i64 112, i1 false), !tbaa.struct !3
  store ptr %1, ptr %0, align 8, !tbaa !10
  br label %6

5:                                                ; preds = %3
  tail call void @llvm.memcpy.p0.p0.i64(ptr noundef nonnull align 8 dereferenceable(112) %0, ptr noundef nonnull align 8 dereferenceable(112) @_ZL12noopIterator, i64 112, i1 false), !tbaa.struct !3
  br label %6

6:                                                ; preds = %4, %5, %2
  ret void
}